; Function Attrs: mustprogress nounwind uwtable
define dso_local { ptr, i64 } @_ZNK4node4quic5Storecv11nghttp3_vecEv(ptr nocapture noundef nonnull readonly align 8 dereferenceable(40) %this) local_unnamed_addr #3 align 2 {
entry:
  %store_.i = getelementptr inbounds i8, ptr %this, i64 8
  %0 = load ptr, ptr %store_.i, align 8
  %cmp.i.i.not.i = icmp eq ptr %0, null
  br i1 %cmp.i.i.not.i, label %_ZNK4node4quic5Store7convertI11nghttp3_vechEET_v.exit, label %cond.true.i

cond.true.i:                                      ; preds = %entry
  %call4.i = tail call noundef ptr @_ZNK2v812BackingStore4DataEv(ptr noundef nonnull align 1 dereferenceable(1) %0) #16
  %offset_.i = getelementptr inbounds i8, ptr %this, i64 32
  %1 = load i64, ptr %offset_.i, align 8
  %add.ptr.i = getelementptr inbounds i8, ptr %call4.i, i64 %1
  br label %_ZNK4node4quic5Store7convertI11nghttp3_vechEET_v.exit

_ZNK4node4quic5Store7convertI11nghttp3_vechEET_v.exit: ; preds = %entry, %cond.true.i
  %cond.i = phi ptr [ %add.ptr.i, %cond.true.i ], [ null, %entry ]
  %length_.i = getelementptr inbounds i8, ptr %this, i64 24
  %2 = load i64, ptr %length_.i, align 8
  %.fca.0.insert.i = insertvalue { ptr, i64 } poison, ptr %cond.i, 0
  %.fca.1.insert.i = insertvalue { ptr, i64 } %.fca.0.insert.i, i64 %2, 1
  ret { ptr, i64 } %.fca.1.insert.i
}